target datalayout = "e-m:e-p270:32:32-p271:32:32-p272:64:64-i64:64-i128:128-f80:128-n8:16:32:64-S128"
target triple = "x86_64-pc-linux-gnu"

%"struct.std::atomic" = type { %"struct.std::__atomic_base" }
%"struct.std::__atomic_base" = type { i32 }
%"class.icu_77::UnifiedCache" = type { %"class.icu_77::UnifiedCacheBase", ptr, i32, i32, i32, i32, i32, i64, ptr }
%"class.icu_77::UnifiedCacheBase" = type { %"class.icu_77::UObject" }
%"class.icu_77::UObject" = type { ptr }
%"class.icu_77::SharedObject" = type { %"class.icu_77::UObject", i32, %"struct.std::atomic", ptr }

; Function Attrs: inlinehint mustprogress uwtable
define linkonce_odr noundef signext i8 @_ZNK6icu_7712SharedObject16noHardReferencesEv(ptr noundef nonnull align 8 dereferenceable(24) %0) #2 comdat align 2 {
  %2 = alloca ptr, align 8
  store ptr %0, ptr %2, align 8, !tbaa !46
  %3 = load ptr, ptr %2, align 8
  %4 = call noundef i32 @_ZNK6icu_7712SharedObject11getRefCountEv(ptr noundef nonnull align 8 dereferenceable(24) %3)
  %5 = icmp eq i32 %4, 0
  %6 = zext i1 %5 to i8
  ret i8 %6
}

; Function Attrs: mustprogress uwtable
define void @_ZNK6icu_7712UnifiedCache13removeSoftRefEPKNS_12SharedObjectE(ptr noundef nonnull align 8 dereferenceable(56) %0, ptr noundef %1) #0 align 2 {
  %3 = alloca ptr, align 8
  %4 = alloca ptr, align 8
  store ptr %0, ptr %3, align 8, !tbaa !14
  store ptr %1, ptr %4, align 8, !tbaa !46
  %5 = load ptr, ptr %3, align 8
  %6 = load ptr, ptr %4, align 8, !tbaa !46
  %7 = getelementptr inbounds nuw %"class.icu_77::SharedObject", ptr %6, i32 0, i32 1
  %8 = load i32, ptr %7, align 8, !tbaa !41
  %9 = add nsw i32 %8, -1
  store i32 %9, ptr %7, align 8, !tbaa !41
  %10 = icmp eq i32 %9, 0
  br i1 %10, label %11, label %30

11:                                               ; preds = %2
  %12 = getelementptr inbounds nuw %"class.icu_77::UnifiedCache", ptr %5, i32 0, i32 3
  %13 = load i32, ptr %12, align 4, !tbaa !35
  %14 = add nsw i32 %13, -1
  store i32 %14, ptr %12, align 4, !tbaa !35
  %15 = load ptr, ptr %4, align 8, !tbaa !46
  %16 = call noundef signext i8 @_ZNK6icu_7712SharedObject16noHardReferencesEv(ptr noundef nonnull align 8 dereferenceable(24) %15)
  %17 = icmp ne i8 %16, 0
  br i1 %17, label %18, label %26

18:                                               ; preds = %11
  %19 = load ptr, ptr %4, align 8, !tbaa !46
  %20 = icmp eq ptr %19, null
  br i1 %20, label %25, label %21

21:                                               ; preds = %18
  %22 = load ptr, ptr %19, align 8, !tbaa !9
  %23 = getelementptr inbounds ptr, ptr %22, i64 1
  %24 = load ptr, ptr %23, align 8
  call void %24(ptr noundef nonnull align 8 dereferenceable(24) %19) #12
  br label %25

25:                                               ; preds = %21, %18
  br label %29

26:                                               ; preds = %11
  %27 = load ptr, ptr %4, align 8, !tbaa !46
  %28 = getelementptr inbounds nuw %"class.icu_77::SharedObject", ptr %27, i32 0, i32 3
  store ptr null, ptr %28, align 8, !tbaa !44
  br label %29

29:                                               ; preds = %26, %25
  br label %30

30:                                               ; preds = %29, %2
  ret void
}