; Function Attrs: mustprogress uwtable
define void @_ZNK6icu_7712UnifiedCache13removeSoftRefEPKNS_12SharedObjectE(ptr noundef nonnull align 8 captures(none) dereferenceable(56) %0, ptr noundef %1) local_unnamed_addr #0 align 2 {
  %3 = getelementptr inbounds nuw i8, ptr %1, i64 8
  %4 = load i32, ptr %3, align 8, !tbaa !34
  %5 = add nsw i32 %4, -1
  store i32 %5, ptr %3, align 8, !tbaa !34
  %6 = icmp eq i32 %5, 0
  br i1 %6, label %7, label %18

7:                                                ; preds = %2
  %8 = getelementptr inbounds nuw i8, ptr %0, i64 20
  %9 = load i32, ptr %8, align 4, !tbaa !29
  %10 = add nsw i32 %9, -1
  store i32 %10, ptr %8, align 4, !tbaa !29
  %11 = tail call noundef i32 @_ZNK6icu_7712SharedObject11getRefCountEv(ptr noundef nonnull align 8 dereferenceable(24) %1)
  %.not = icmp eq i32 %11, 0
  br i1 %.not, label %12, label %16

12:                                               ; preds = %7
  %13 = load ptr, ptr %1, align 8, !tbaa !3
  %14 = getelementptr inbounds nuw i8, ptr %13, i64 8
  %15 = load ptr, ptr %14, align 8
  tail call void %15(ptr noundef nonnull align 8 dereferenceable(24) %1) #16
  br label %18

16:                                               ; preds = %7
  %17 = getelementptr inbounds nuw i8, ptr %1, i64 16
  store ptr null, ptr %17, align 8, !tbaa !37
  br label %18

18:                                               ; preds = %16, %12, %2
  ret void
}